(dp1
S'output'
p2
S"<class 'sqlite3.IntegrityError'> foreign key constraint failed"
p3
sS'layer'
p4
S'C:\\Users\\008\\moodle-plus\\applications\\MoodlePlus\\controllers/default.py'
p5
sS'code'
p6
S'# -*- coding: utf-8 -*-\n# this file is released under public domain and you can use without limitations\n\n#########################################################################\n## This is a sample controller\n## - index is the default action of any application\n## - user is required for authentication and authorization\n## - download is for downloading files uploaded in the db (does streaming)\n#########################################################################\n\ndef index():\n    """\n    example action using the internationalization operator T and flash\n    rendered by views/default/index.html or views/generic.html\n\n    if you need a simple wiki simply replace the two lines below with:\n    return auth.wiki()\n    """\n    response.flash = T("Welcome on Moodle+")\n    return dict(noti_count=4)\n\ndef grades():\n    grades = db(db.grades.user_id==auth.user.id).select()\n    courses = []\n    for grade in grades:\n        courses.append(db(db.courses.id==grade.registered_course_id.course_id).select().first())\n    return dict(grades=grades, courses=courses)\n\ndef notifications():\n    noti = db(db.notifications.user_id==auth.user.id).select(orderby=~db.notifications.created_at)\n    db(db.notifications.user_id==auth.user.id).update(is_seen=1)\n    return dict(notifications=noti)\n\n\ndef logged_in():\n    return dict(success=auth.is_logged_in(), user=auth.user)\n\ndef logout():\n    return dict(success=True, loggedout=auth.logout())\n\ndef user():\n    """\n    exposes:\n    http://..../[app]/default/user/login\n    http://..../[app]/default/user/logout\n    http://..../[app]/default/user/register\n    http://..../[app]/default/user/profile\n    http://..../[app]/default/user/retrieve_password\n    http://..../[app]/default/user/change_password\n    http://..../[app]/default/user/manage_users (requires membership in\n    use @auth.requires_login()\n        @auth.requires_membership(\'group name\')\n        @auth.requires_permission(\'read\',\'table name\',record_id)\n    to decorate functions that need access control\n    """\n    return dict(form=auth())\n\n\n@cache.action()\ndef download():\n    """\n    allows downloading of uploaded files\n    http://..../[app]/default/download/[filename]\n    """\n    return response.download(request, db)\n\n\ndef call():\n    """\n    exposes services. for example:\n    http://..../[app]/default/call/jsonrpc\n    decorate with @services.jsonrpc the functions to expose\n    supports xml, json, xmlrpc, jsonrpc, amfrpc, rss, csv\n    """\n    return service()\n\n\n@request.restful()\ndef api():\n    response.view = \'generic.\'+request.extension\n    def GET(*args,**vars):\n        patterns = \'auto\'\n        parser = db.parse_as_rest(patterns,args,vars)\n        if parser.status == 200:\n            return dict(content=parser.response)\n        else:\n            raise HTTP(parser.status,parser.error)\n    def POST(table_name,**vars):\n        return db[table_name].validate_and_insert(**vars)\n    def PUT(table_name,record_id,**vars):\n        return db(db[table_name]._id==record_id).update(**vars)\n    def DELETE(table_name,record_id):\n        return db(db[table_name]._id==record_id).delete()\n    return dict(GET=GET, POST=POST, PUT=PUT, DELETE=DELETE)\n\ndef login():\n    userid = request.vars.userid\n    password = request.vars.password\n    user = auth.login_bare(userid,password)\n    return dict(success=False if not user else True, user=user)\n\ndef populate_db():\n\t## Populate DB Script\n\n\t## clear database\n\tfor table in db.tables():\n\t\ttry:\n\t\t\tdb(db[table].id>0).delete()\n\t\t\tprint "Cleared",table\n\t\texcept Exception, e:\n\t\t\tprint "Couldn\'t clear",table\n\n\t## create 4 students\n\tdb.users.insert(\n\t\tfirst_name="John",\n\t\tlast_name="Doe",\n\t\temail="cs1110200@cse.iitd.ac.in",\n\t\tusername="cs1110200",\n\t\tentry_no="2011CS10200",\n\t\ttype_=0,\n\t\tpassword="john",\n\t)\n\n\tdb.users.insert(\n\t\tfirst_name="Jasmeet",\n\t\tlast_name="Singh",\n\t\temail="cs5110281@cse.iitd.ac.in",\n\t\tusername="cs5110281",\n\t\tentry_no="2011CS50281",\n\t\ttype_=0,\n\t\tpassword="jasmeet",\n\t)\n\n\tdb.users.insert(\n\t\tfirst_name="Abhishek",\n\t\tlast_name="Bansal",\n\t\temail="cs5110271@cse.iitd.ac.in",\n\t\tusername="cs5110271",\n\t\tentry_no="2011CS50271",\n\t\ttype_=0,\n\t\tpassword="abhishek",\n\t)\n\n\n\tdb.users.insert(\n\t\tfirst_name="Shubham",\n\t\tlast_name="Jindal",\n\t\temail="cs5110300@cse.iitd.ac.in",\n\t\tusername="cs5110300",\n\t\tentry_no="2011CS50300",\n\t\ttype_=0,\n\t\tpassword="shubham",\n\t)\n\n\n\t## create 3 professors\n\tdb.users.insert(\n\t\tfirst_name="Vinay",\n\t\tlast_name="Ribeiro",\n\t\temail="vinay@cse.iitd.ac.in",\n\t\tusername="vinay",\n\t\tentry_no="vinay",\n\t\ttype_=1,\n\t\tpassword="vinay",\n\t)\n\n\tdb.users.insert(\n\t\tfirst_name="Suresh",\n\t\tlast_name="Gupta",\n\t\temail="scgupta@cse.moodle.in",\n\t\tusername="scgupta",\n\t\tentry_no="scgupta",\n\t\ttype_=1,\n\t\tpassword="scgupta",\n\t)\n\n\tdb.users.insert(\n\t\tfirst_name="Subodh",\n\t\tlast_name="Kumar",\n\t\temail="subodh@cse.iitd.ac.in",\n\t\tusername="subodh",\n\t\tentry_no="subodh",\n\t\ttype_=1,\n\t\tpassword="subodh",\n\t)\n\n\n\t## create 7 courses\n\tdb.courses.insert(\n\t\tname="Design Practices in Computer Science",\n\t\tcode="cop290",\n\t\tdescription="Design Practices in Computer Science.",\n\t\tcredits=3,\n\t\tl_t_p="0-0-6"\n\t)\n\n\tdb.courses.insert(\n\t\tname="Wireless Networks",\n\t\tcode="csl838",\n\t\tdescription="PHY and MAC layer concepts in wireless networking",\n\t\tcredits=3,\n\t\tl_t_p="2-0-2"\n\t)\n\n\tdb.courses.insert(\n\t\tname="Software Engineering",\n\t\tcode="col740",\n\t\tdescription="Introduction to the concepts of Software Design and Engineering.",\n\t\tcredits=4,\n\t\tl_t_p="3-0-2"\n\t)\n\n\tdb.courses.insert(\n\t\tname="Cloud Computing and Virtualisation",\n\t\tcode="csl732",\n\t\tdescription="Introduction to Cloud Computing and Virtualisation.",\n\t\tcredits=4,\n\t\tl_t_p="3-0-2"\n\t)\n\n\tdb.courses.insert(\n\t\tname="Parallel Programming",\n\t\tcode="col380",\n\t\tdescription="Introduction to concurrent systems and programming style.",\n\t\tcredits=4,\n\t\tl_t_p="3-0-2"\n\t)\n\n\tdb.courses.insert(\n\t\tname="Computer Graphics",\n\t\tcode="csl781",\n\t\tdescription="Computer Graphics.",\n\t\tcredits=4,\n\t\tl_t_p="3-0-2"\n\t)\n\n\n\tdb.courses.insert(\n\t\tname="Advanced Computer Graphics",\n\t\tcode="csl859",\n\t\tdescription="Graduate course on Advanced Computer Graphics",\n\t\tcredits=4,\n\t\tl_t_p="3-0-2"\n\t)\n\n\n\n\n\t## create 7 registered courses\n\tdb.registered_courses.insert(\t\n\t\tcourse_id=1,\n\t\tprofessor=5,\n\t\tyear_=2016,\n\t\tsemester=2,\n\t\tstarting_date=datetime(2016,1,1),\n\t\tending_date=datetime(2016,5,10),\n\t)\n\n\tdb.registered_courses.insert(\n\t\tcourse_id=2,\n\t\tprofessor=5,\n\t\tyear_=2016,\n\t\tsemester=2,\n\t\tstarting_date=datetime(2016,1,1),\n\t\tending_date=datetime(2016,5,10),\n\t)\n\n\tdb.registered_courses.insert(\n\t\tcourse_id=3,\n\t\tprofessor=6,\n\t\tyear_=2016,\n\t\tsemester=2,\n\t\tstarting_date=datetime(2016,1,1),\n\t\tending_date=datetime(2016,5,10),\n\t)\n\n\tdb.registered_courses.insert(\n\t\tcourse_id=4,\n\t\tprofessor=6,\n\t\tyear_=2016,\n\t\tsemester=2,\n\t\tstarting_date=datetime(2016,1,1),\n\t\tending_date=datetime(2016,5,10),\n\t)\n\n\tdb.registered_courses.insert(\n\t\tcourse_id=5,\n\t\tprofessor=7,\n\t\tyear_=2016,\n\t\tsemester=2,\n\t\tstarting_date=datetime(2016,1,1),\n\t\tending_date=datetime(2016,5,10),\n\t)\n\n\tdb.registered_courses.insert(\n\t\tcourse_id=6,\n\t\tprofessor=7,\n\t\tyear_=2016,\n\t\tsemester=2,\n\t\tstarting_date=datetime(2016,1,1),\n\t\tending_date=datetime(2016,5,10),\n\t)\n\n\tdb.registered_courses.insert(\n\t\tcourse_id=7,\n\t\tprofessor=7,\n\t\tyear_=2016,\n\t\tsemester=1,\n\t\tstarting_date=datetime(2014,7,1),\n\t\tending_date=datetime(2014,12,10),\n\t)\n\n\t## register 3 students for 5 courses each out of 7 registered courses\n\tdb.student_registrations.insert(student_id=1,registered_course_id=3)\n\tdb.student_registrations.insert(student_id=1,registered_course_id=2)\n\tdb.student_registrations.insert(student_id=1,registered_course_id=1)\n\tdb.student_registrations.insert(student_id=1,registered_course_id=4)\n\tdb.student_registrations.insert(student_id=1,registered_course_id=5)\n\tdb.student_registrations.insert(student_id=2,registered_course_id=3)\n\tdb.student_registrations.insert(student_id=2,registered_course_id=4)\n\tdb.student_registrations.insert(student_id=2,registered_course_id=6)\n\tdb.student_registrations.insert(student_id=2,registered_course_id=7)\n\tdb.student_registrations.insert(student_id=2,registered_course_id=1)\n\tdb.student_registrations.insert(student_id=3,registered_course_id=3)\n\tdb.student_registrations.insert(student_id=3,registered_course_id=1)\n\tdb.student_registrations.insert(student_id=3,registered_course_id=5)\n\tdb.student_registrations.insert(student_id=3,registered_course_id=6)\n\tdb.student_registrations.insert(student_id=3,registered_course_id=2)\n\tdb.student_registrations.insert(student_id=4,registered_course_id=3)\n\tdb.student_registrations.insert(student_id=4,registered_course_id=4)\n\tdb.student_registrations.insert(student_id=4,registered_course_id=5)\n\tdb.student_registrations.insert(student_id=4,registered_course_id=7)\n\tdb.student_registrations.insert(student_id=4,registered_course_id=1)\n\n\t## create 3 assignments in Design Practices course\n\tdb.events.insert(\n\t\tregistered_course_id=1,\n\t\ttype_=0,\n\t\tname="Project Submission 1: Draft Requirement Document",\n\t\tdescription="<p><br></p><p>Organise 2 hr meeting of the team to</p><p>-Choose one of the Projects discussed in the class</p><p>-Discuss the specification of the selected project. Identify the aspects to be explored by team members&nbsp;</p><p>-Document the discussion and the initial specs of the project</p><p><br></p><p>Organise 2nd 2 hr meeting &nbsp;to</p><p>-Share the homework done by each team member</p><p>-Discuss and finalise the specs of the projects</p><p>-Prepare 1 or 2 page document on the draft project specification&nbsp;</p><p><br></p><p>Submit the draft Project Requirement Document by Wednesday mid night.</p><p>Add title of the project in the group excel sheet</p>",\n\t\tcreated_at=datetime.now(),\n\t\tdeadline=datetime.now()-timedelta(days=-7),\n\t\tlate_days_allowed=0\n\t)\n\n\tdb.events.insert(\n\t\tregistered_course_id=1,\n\t\ttype_=0,\n\t\tname="Project Submission 2: Requirement Document in IEEE template format",\n\t\tdescription="<p>Submission Deadline 20 Feb Midnight.</p><p id=\'yui_3_17_2_3_1431040674495_308\'>Recommended Process</p><p>-Meeting1 &nbsp;</p><p>&nbsp; &nbsp; &nbsp; &nbsp; &nbsp; Compete listing &nbsp;of User requirements</p><p>&nbsp; &nbsp; &nbsp; &nbsp; &nbsp; Create System Architecture</p><p id=\'yui_3_17_2_3_1431040674495_309\'>&nbsp; &nbsp; &nbsp; &nbsp; &nbsp; Identify Use cases, Users, draw Use Case Diagram<br></p><p>-Meeting2</p><p>&nbsp; &nbsp; &nbsp; &nbsp; &nbsp;Translate user requirement into system requirements</p><p>&nbsp; &nbsp; &nbsp; &nbsp; &nbsp;Discuss and document Use cases including relevant Models</p><p>-Meeting3&nbsp;</p><p>&nbsp; &nbsp; &nbsp; &nbsp; Discuss each section of the IEEE template&nbsp;</p><p>&nbsp; &nbsp; &nbsp; &nbsp; Create Document as per IEEE template</p><p><br></p><p>&nbsp; &nbsp; &nbsp; &nbsp; &nbsp;</p><p>&nbsp;</p><p><br></p>",\n\t\tcreated_at=datetime.now(),\n\t\tdeadline=datetime.now()-timedelta(days=-7),\n\t\tlate_days_allowed=2\n\t)\n\n\tdb.events.insert(\n\t\tregistered_course_id=1,\n\t\ttype_=0,\n\t\tname="Project Submission 3 : Detailed Design Document",\n\t\tdescription="<p>Based on the Requirement Document, a detailed design document</p><p>will be created by each group.</p><p>It should have the following components</p><p>-Project Overview</p><p>-Architectural design with well identified Modules</p><p>-Modules specification &amp; its APIs</p><p>-Database Design</p><p>-User Interface Design</p><p>-Module internal data structures and processing if needed.</p><p>-Aprorpriate Diagrams as necessary</p><p>-Any other information as necessary</p><p>Design document should be complete from all aspects ( i.e Requirement &amp; design document should be adequate for any other programming team to develop the system without may further input)</p><p>You may use any apropriate format for this design document</p><p>Submission date 29th March.</p><p><br></p><p><br></p>",\n\t\tcreated_at=datetime.now(),\n\t\tdeadline=datetime.now()-timedelta(days=-7),\n\t\tlate_days_allowed=3\n\t)\n\n\t## Grades\n\tdb.grades.insert(user_id=1, registered_course_id=1, name="Assignment 1", score=15, out_of=15, weightage=10)\n\tdb.grades.insert(user_id=1, registered_course_id=1, name="Assignment 2", score=10, out_of=20, weightage=15)\n\tdb.grades.insert(user_id=1, registered_course_id=1, name="Minor 1", score=25, out_of=30, weightage=25)\n\n\tdb.grades.insert(user_id=2, registered_course_id=1, name="Assignment 1", score=15, out_of=15, weightage=10)\n\tdb.grades.insert(user_id=2, registered_course_id=1, name="Assignment 2", score=18, out_of=20, weightage=15)\n\tdb.grades.insert(user_id=2, registered_course_id=1, name="Minor 1", score=20, out_of=30, weightage=25)\n\n\tdb.grades.insert(user_id=3, registered_course_id=1, name="Assignment 1", score=15, out_of=15, weightage=10)\n\tdb.grades.insert(user_id=3, registered_course_id=1, name="Assignment 2", score=14, out_of=20, weightage=15)\n\tdb.grades.insert(user_id=3, registered_course_id=1, name="Minor 1", score=23, out_of=30, weightage=25)\n\n\tdb.grades.insert(user_id=4, registered_course_id=1, name="Assignment 1", score=15, out_of=15, weightage=10)\n\tdb.grades.insert(user_id=4, registered_course_id=1, name="Assignment 2", score=20, out_of=20, weightage=15)\n\tdb.grades.insert(user_id=4, registered_course_id=1, name="Minor 1", score=15, out_of=30, weightage=25)\n\n\t## create 4 threads in Different courses\n\n\n\t## Create Static Variables\n\tdb.static_vars.insert(\n\t\tname="current_year",\n\t\tint_value=2016,\n\t\tstring_value="2016"\n\t)\n\n\tdb.static_vars.insert(\n\t\tname="current_sem",\n\t\tint_value=2,\n\t\tstring_value="2"\n\t)\ndef api():\n    return """\nMoodle Plus API (ver 1.0)\n-------------------------\n\nUrl: /default/login.json\nInput params:\n    userid: (string)\n    password: (string)\nOutput params:\n    success: (boolean) True if login success and False otherwise\n    user: (json) User details if login is successful otherwise False\n\n\nUrl: /default/logout.json\nInput params:\nOutput params:\n    success: (boolean) True if logout successful and False otherwise\n\n\nUrl: /courses/list.json\nInput params:\nOutput params:\n    current_year: (int)\n    current_sem: (int) 0 for summer, 1 break, 2 winter\n    courses: (List) list of courses\n    user: (dictionary) user details\n\nUrl: /threads/new.json\nInput params:\n    title: (string) can\'t be empty\n    description: (string) can\'t be empty\n    course_code: (string) must be a registered courses\nOutput params:\n    success: (bool) True or False depending on whether thread was posted\n    thread_id: (bool) id of new thread created\n\n    """\n\nresponse._vars=response._caller(populate_db)\n'
p7
sS'snapshot'
p8
(dp9
S'exception'
p10
(dp11
S'__module__'
p12
S"'sqlite3'"
p13
sS'__getslice__'
p14
S"<method-wrapper '__getslice__' of IntegrityError object>"
p15
sS'__str__'
p16
S"<method-wrapper '__str__' of IntegrityError object>"
p17
sS'__reduce__'
p18
S'<built-in method __reduce__ of IntegrityError object>'
p19
sS'__dict__'
p20
S'{}'
p21
sS'__sizeof__'
p22
S'<built-in method __sizeof__ of IntegrityError object>'
p23
sS'__weakref__'
p24
S'None'
p25
sS'__init__'
p26
S"<method-wrapper '__init__' of IntegrityError object>"
p27
sS'__setattr__'
p28
S"<method-wrapper '__setattr__' of IntegrityError object>"
p29
sS'__reduce_ex__'
p30
S'<built-in method __reduce_ex__ of IntegrityError object>'
p31
sS'__new__'
p32
S'<built-in method __new__ of type object>'
p33
sS'__format__'
p34
S'<built-in method __format__ of IntegrityError object>'
p35
sS'__class__'
p36
S"<class 'sqlite3.IntegrityError'>"
p37
sS'__doc__'
p38
S'None'
p39
sS'__getitem__'
p40
S"<method-wrapper '__getitem__' of IntegrityError object>"
p41
sS'__setstate__'
p42
S'<built-in method __setstate__ of IntegrityError object>'
p43
sS'__getattribute__'
p44
S"<method-wrapper '__getattribute__' of IntegrityError object>"
p45
sS'args'
p46
S"('foreign key constraint failed',)"
p47
sS'__subclasshook__'
p48
S'<built-in method __subclasshook__ of type object>'
p49
sS'__unicode__'
p50
S'<built-in method __unicode__ of IntegrityError object>'
p51
sS'__delattr__'
p52
S"<method-wrapper '__delattr__' of IntegrityError object>"
p53
sS'__repr__'
p54
S"<method-wrapper '__repr__' of IntegrityError object>"
p55
sS'__hash__'
p56
S"<method-wrapper '__hash__' of IntegrityError object>"
p57
ssS'evalue'
p58
S'foreign key constraint failed'
p59
sS'request'
p60
cgluon.html
XML_unpickle
p61
(S'stR\x00\x00<div><table><tr><td style="font-weight:bold;vertical-align:top;">ajax</td><td style="vertical-align:top;">:</td><td><div>False</div></td></tr><tr><td style="font-weight:bold;vertical-align:top;">application</td><td style="vertical-align:top;">:</td><td><div>MoodlePlus</div></td></tr><tr><td style="font-weight:bold;vertical-align:top;">args</td><td style="vertical-align:top;">:</td><td><div><table></table></div></td></tr><tr><td style="font-weight:bold;vertical-align:top;">cid</td><td style="vertical-align:top;">:</td><td><div>None</div></td></tr><tr><td style="font-weight:bold;vertical-align:top;">client</td><td style="vertical-align:top;">:</td><td><div>127.0.0.1</div></td></tr><tr><td style="font-weight:bold;vertical-align:top;">controller</td><td style="vertical-align:top;">:</td><td><div>default</div></td></tr><tr><td style="font-weight:bold;vertical-align:top;">cookies</td><td style="vertical-align:top;">:</td><td><div><table><tr><td style="font-weight:bold;vertical-align:top;">session_id_moodleplus</td><td style="vertical-align:top;">:</td><td><div>127.0.0.1-3b8f9cb2-87cb-49d5-8add-762c2492b196<table><tr><td style="font-weight:bold;vertical-align:top;">comment</td><td style="vertical-align:top;">:</td><td><div></div></td></tr><tr><td style="font-weight:bold;vertical-align:top;">domain</td><td style="vertical-align:top;">:</td><td><div></div></td></tr><tr><td style="font-weight:bold;vertical-align:top;">expires</td><td style="vertical-align:top;">:</td><td><div></div></td></tr><tr><td style="font-weight:bold;vertical-align:top;">httponly</td><td style="vertical-align:top;">:</td><td><div></div></td></tr><tr><td style="font-weight:bold;vertical-align:top;">max-age</td><td style="vertical-align:top;">:</td><td><div></div></td></tr><tr><td style="font-weight:bold;vertical-align:top;">path</td><td style="vertical-align:top;">:</td><td><div></div></td></tr><tr><td style="font-weight:bold;vertical-align:top;">secure</td><td style="vertical-align:top;">:</td><td><div></div></td></tr><tr><td style="font-weight:bold;vertical-align:top;">version</td><td style="vertical-align:top;">:</td><td><div></div></td></tr></table></div></td></tr></table></div></td></tr><tr><td style="font-weight:bold;vertical-align:top;">env</td><td style="vertical-align:top;">:</td><td><div><table><tr><td style="font-weight:bold;vertical-align:top;">HTTP_ACCEPT</td><td style="vertical-align:top;">:</td><td><div>text/html,application/xhtml+xml,application/xml;q=0.9,image/webp,*/*;q=0.8</div></td></tr><tr><td style="font-weight:bold;vertical-align:top;">HTTP_ACCEPT_ENCODING</td><td style="vertical-align:top;">:</td><td><div>gzip, deflate, sdch</div></td></tr><tr><td style="font-weight:bold;vertical-align:top;">HTTP_ACCEPT_LANGUAGE</td><td style="vertical-align:top;">:</td><td><div>en-US,en;q=0.8</div></td></tr><tr><td style="font-weight:bold;vertical-align:top;">HTTP_CACHE_CONTROL</td><td style="vertical-align:top;">:</td><td><div>max-age=0</div></td></tr><tr><td style="font-weight:bold;vertical-align:top;">HTTP_CONNECTION</td><td style="vertical-align:top;">:</td><td><div>keep-alive</div></td></tr><tr><td style="font-weight:bold;vertical-align:top;">HTTP_COOKIE</td><td style="vertical-align:top;">:</td><td><div>session_id_moodleplus=127.0.0.1-3b8f9cb2-87cb-49d5-8add-762c2492b196</div></td></tr><tr><td style="font-weight:bold;vertical-align:top;">HTTP_HOST</td><td style="vertical-align:top;">:</td><td><div>127.0.0.1:8000</div></td></tr><tr><td style="font-weight:bold;vertical-align:top;">HTTP_UPGRADE_INSECURE_REQUESTS</td><td style="vertical-align:top;">:</td><td><div>1</div></td></tr><tr><td style="font-weight:bold;vertical-align:top;">HTTP_USER_AGENT</td><td style="vertical-align:top;">:</td><td><div>Mozilla/5.0 (Windows NT 10.0; WOW64) AppleWebKit/537.36 (KHTML, like Gecko) Chrome/48.0.2564.103 Safari/537.36</div></td></tr><tr><td style="font-weight:bold;vertical-align:top;">PATH_INFO</td><td style="vertical-align:top;">:</td><td><div>/populate_db</div></td></tr><tr><td style="font-weight:bold;vertical-align:top;">QUERY_STRING</td><td style="vertical-align:top;">:</td><td><div></div></td></tr><tr><td style="font-weight:bold;vertical-align:top;">REMOTE_ADDR</td><td style="vertical-align:top;">:</td><td><div>127.0.0.1</div></td></tr><tr><td style="font-weight:bold;vertical-align:top;">REMOTE_PORT</td><td style="vertical-align:top;">:</td><td><div>54922</div></td></tr><tr><td style="font-weight:bold;vertical-align:top;">REQUEST_METHOD</td><td style="vertical-align:top;">:</td><td><div>GET</div></td></tr><tr><td style="font-weight:bold;vertical-align:top;">SCRIPT_NAME</td><td style="vertical-align:top;">:</td><td><div></div></td></tr><tr><td style="font-weight:bold;vertical-align:top;">SERVER_NAME</td><td style="vertical-align:top;">:</td><td><div>hp</div></td></tr><tr><td style="font-weight:bold;vertical-align:top;">SERVER_PORT</td><td style="vertical-align:top;">:</td><td><div>8000</div></td></tr><tr><td style="font-weight:bold;vertical-align:top;">SERVER_PROTOCOL</td><td style="vertical-align:top;">:</td><td><div>HTTP/1.1</div></td></tr><tr><td style="font-weight:bold;vertical-align:top;">SERVER_SOFTWARE</td><td style="vertical-align:top;">:</td><td><div>Rocket 1.2.6</div></td></tr><tr><td style="font-weight:bold;vertical-align:top;">app_folders</td><td style="vertical-align:top;">:</td><td><div>set([&#x27;C:\\\\Users\\\\008\\\\moodle-plus\\\\applications\\\\MoodlePlus\\\\&#x27;])</div></td></tr><tr><td style="font-weight:bold;vertical-align:top;">applications_parent</td><td style="vertical-align:top;">:</td><td><div>C:\\Users\\008\\moodle-plus</div></td></tr><tr><td style="font-weight:bold;vertical-align:top;">cmd_args</td><td style="vertical-align:top;">:</td><td><div><table></table></div></td></tr><tr><td style="font-weight:bold;vertical-align:top;">cmd_options</td><td style="vertical-align:top;">:</td><td><div>&lt;Values at 0x2a23a58: {&#x27;verbose&#x27;: False, &#x27;ip&#x27;: &#x27;127.0.0.1&#x27;, &#x27;debuglevel&#x27;: 30, &#x27;with_scheduler&#x27;: False, &#x27;ips&#x27;: [&#x27;10.249.210.24&#x27;, &#x27;192.168.56.1&#x27;, &#x27;fe80::8838:5d6c:d1d7:36c5%3&#x27;, &#x27;fe80::601b:d8a8:e92a:ed07%9&#x27;], &#x27;shutdown_timeout&#x27;: 5, &#x27;taskbar&#x27;: False, &#x27;with_coverage&#x27;: False, &#x27;scheduler_groups&#x27;: None, &#x27;port&#x27;: 8000, &#x27;maxthreads&#x27;: None, &#x27;softcron&#x27;: False, &#x27;server_name&#x27;: &#x27;hp&#x27;, &#x27;bpython&#x27;: False, &#x27;nogui&#x27;: False, &#x27;pid_filename&#x27;: &#x27;httpserver.pid&#x27;, &#x27;print_errors&#x27;: False, &#x27;extcron&#x27;: False, &#x27;runcron&#x27;: False, &#x27;run_system_tests&#x27;: False, &#x27;test&#x27;: None, &#x27;folder&#x27;: &#x27;C:\\\\Users\\\\008\\\\moodle-plus&#x27;, &#x27;config&#x27;: &#x27;&#x27;, &#x27;minthreads&#x27;: None, &#x27;shell&#x27;: None, &#x27;run&#x27;: &#x27;&#x27;, &#x27;log_filename&#x27;: &#x27;httpserver.log&#x27;, &#x27;profiler_dir&#x27;: None, &#x27;args&#x27;: [&#x27;&#x27;], &#x27;socket_timeout&#x27;: 5, &#x27;ssl_ca_certificate&#x27;: None, &#x27;scheduler&#x27;: None, &#x27;interfaces&#x27;: None, &#x27;ssl_private_key&#x27;: &#x27;&#x27;, &#x27;gae&#x27;: None, &#x27;password&#x27;: &#x27;&lt;ask&gt;&#x27;, &#x27;request_queue_size&#x27;: 5, &#x27;ssl_certificate&#x27;: &#x27;&#x27;, &#x27;cronjob&#x27;: False, &#x27;numthreads&#x27;: None, &#x27;quiet&#x27;: False, &#x27;import_models&#x27;: False, &#x27;timeout&#x27;: 10, &#x27;plain&#x27;: False, &#x27;nobanner&#x27;: False}&gt;</div></td></tr><tr><td style="font-weight:bold;vertical-align:top;">db_sessions</td><td style="vertical-align:top;">:</td><td><div>set([])</div></td></tr><tr><td style="font-weight:bold;vertical-align:top;">debugging</td><td style="vertical-align:top;">:</td><td><div>False</div></td></tr><tr><td style="font-weight:bold;vertical-align:top;">gluon_parent</td><td style="vertical-align:top;">:</td><td><div>C:\\Users\\008\\moodle-plus</div></td></tr><tr><td style="font-weight:bold;vertical-align:top;">http_accept</td><td style="vertical-align:top;">:</td><td><div>text/html,application/xhtml+xml,application/xml;q=0.9,image/webp,*/*;q=0.8</div></td></tr><tr><td style="font-weight:bold;vertical-align:top;">http_accept_encoding</td><td style="vertical-align:top;">:</td><td><div>gzip, deflate, sdch</div></td></tr><tr><td style="font-weight:bold;vertical-align:top;">http_accept_language</td><td style="vertical-align:top;">:</td><td><div>en-US,en;q=0.8</div></td></tr><tr><td style="font-weight:bold;vertical-align:top;">http_cache_control</td><td style="vertical-align:top;">:</td><td><div>max-age=0</div></td></tr><tr><td style="font-weight:bold;vertical-align:top;">http_connection</td><td style="vertical-align:top;">:</td><td><div>keep-alive</div></td></tr><tr><td style="font-weight:bold;vertical-align:top;">http_cookie</td><td style="vertical-align:top;">:</td><td><div>session_id_moodleplus=127.0.0.1-3b8f9cb2-87cb-49d5-8add-762c2492b196</div></td></tr><tr><td style="font-weight:bold;vertical-align:top;">http_host</td><td style="vertical-align:top;">:</td><td><div>127.0.0.1:8000</div></td></tr><tr><td style="font-weight:bold;vertical-align:top;">http_upgrade_insecure_requests</td><td style="vertical-align:top;">:</td><td><div>1</div></td></tr><tr><td style="font-weight:bold;vertical-align:top;">http_user_agent</td><td style="vertical-align:top;">:</td><td><div>Mozilla/5.0 (Windows NT 10.0; WOW64) AppleWebKit/537.36 (KHTML, like Gecko) Chrome/48.0.2564.103 Safari/537.36</div></td></tr><tr><td style="font-weight:bold;vertical-align:top;">is_jython</td><td style="vertical-align:top;">:</td><td><div>False</div></td></tr><tr><td style="font-weight:bold;vertical-align:top;">is_pypy</td><td style="vertical-align:top;">:</td><td><div>False</div></td></tr><tr><td style="font-weight:bold;vertical-align:top;">is_source</td><td style="vertical-align:top;">:</td><td><div>True</div></td></tr><tr><td style="font-weight:bold;vertical-align:top;">local_hosts</td><td style="vertical-align:top;">:</td><td><div><table><tr><td><div>fe80::601b:d8a8:e92a:ed07%9</div></td></tr><tr><td><div>hp</div></td></tr><tr><td><div>::ffff:127.0.0.1</div></td></tr><tr><td><div>::1</div></td></tr><tr><td><div>fe80::8838:5d6c:d1d7:36c5%3</div></td></tr><tr><td><div>10.249.210.24</div></td></tr><tr><td><div>127.0.0.1</div></td></tr><tr><td><div>192.168.56.1</div></td></tr></table></div></td></tr><tr><td style="font-weight:bold;vertical-align:top;">path_info</td><td style="vertical-align:top;">:</td><td><div>/populate_db</div></td></tr><tr><td style="font-weight:bold;vertical-align:top;">query_string</td><td style="vertical-align:top;">:</td><td><div></div></td></tr><tr><td style="font-weight:bold;vertical-align:top;">remote_addr</td><td style="vertical-align:top;">:</td><td><div>127.0.0.1</div></td></tr><tr><td style="font-weight:bold;vertical-align:top;">remote_port</td><td style="vertical-align:top;">:</td><td><div>54922</div></td></tr><tr><td style="font-weight:bold;vertical-align:top;">request_method</td><td style="vertical-align:top;">:</td><td><div>GET</div></td></tr><tr><td style="font-weight:bold;vertical-align:top;">request_uri</td><td style="vertical-align:top;">:</td><td><div>/MoodlePlus/default/populate_db</div></td></tr><tr><td style="font-weight:bold;vertical-align:top;">script_name</td><td style="vertical-align:top;">:</td><td><div></div></td></tr><tr><td style="font-weight:bold;vertical-align:top;">server_name</td><td style="vertical-align:top;">:</td><td><div>hp</div></td></tr><tr><td style="font-weight:bold;vertical-align:top;">server_port</td><td style="vertical-align:top;">:</td><td><div>8000</div></td></tr><tr><td style="font-weight:bold;vertical-align:top;">server_protocol</td><td style="vertical-align:top;">:</td><td><div>HTTP/1.1</div></td></tr><tr><td style="font-weight:bold;vertical-align:top;">server_software</td><td style="vertical-align:top;">:</td><td><div>Rocket 1.2.6</div></td></tr><tr><td style="font-weight:bold;vertical-align:top;">web2py_original_uri</td><td style="vertical-align:top;">:</td><td><div>/populate_db</div></td></tr><tr><td style="font-weight:bold;vertical-align:top;">web2py_path</td><td style="vertical-align:top;">:</td><td><div>C:\\Users\\008\\moodle-plus</div></td></tr><tr><td style="font-weight:bold;vertical-align:top;">web2py_version</td><td style="vertical-align:top;">:</td><td><div>2.10.3-stable+timestamp.2015.04.02.21.42.07</div></td></tr><tr><td style="font-weight:bold;vertical-align:top;">wsgi.errors</td><td style="vertical-align:top;">:</td><td><div>&lt;open file &#x27;&lt;stderr&gt;&#x27;, mode &#x27;w&#x27; at 0x01E6D0D0&gt;</div></td></tr><tr><td style="font-weight:bold;vertical-align:top;">wsgi.file_wrapper</td><td style="vertical-align:top;">:</td><td><div>&lt;class wsgiref.util.FileWrapper at 0x02CEA110&gt;</div></td></tr><tr><td style="font-weight:bold;vertical-align:top;">wsgi.input</td><td style="vertical-align:top;">:</td><td><div>&lt;socket._fileobject object at 0x02461EF0&gt;</div></td></tr><tr><td style="font-weight:bold;vertical-align:top;">wsgi.multiprocess</td><td style="vertical-align:top;">:</td><td><div>False</div></td></tr><tr><td style="font-weight:bold;vertical-align:top;">wsgi.multithread</td><td style="vertical-align:top;">:</td><td><div>True</div></td></tr><tr><td style="font-weight:bold;vertical-align:top;">wsgi.run_once</td><td style="vertical-align:top;">:</td><td><div>False</div></td></tr><tr><td style="font-weight:bold;vertical-align:top;">wsgi.url_scheme</td><td style="vertical-align:top;">:</td><td><div>http</div></td></tr><tr><td style="font-weight:bold;vertical-align:top;">wsgi.version</td><td style="vertical-align:top;">:</td><td><div><table><tr><td><div>1</div></td></tr><tr><td><div>0</div></td></tr></table></div></td></tr><tr><td style="font-weight:bold;vertical-align:top;">wsgi_errors</td><td style="vertical-align:top;">:</td><td><div>&lt;open file &#x27;&lt;stderr&gt;&#x27;, mode &#x27;w&#x27; at 0x01E6D0D0&gt;</div></td></tr><tr><td style="font-weight:bold;vertical-align:top;">wsgi_file_wrapper</td><td style="vertical-align:top;">:</td><td><div>&lt;class wsgiref.util.FileWrapper at 0x02CEA110&gt;</div></td></tr><tr><td style="font-weight:bold;vertical-align:top;">wsgi_input</td><td style="vertical-align:top;">:</td><td><div>&lt;socket._fileobject object at 0x02461EF0&gt;</div></td></tr><tr><td style="font-weight:bold;vertical-align:top;">wsgi_multiprocess</td><td style="vertical-align:top;">:</td><td><div>False</div></td></tr><tr><td style="font-weight:bold;vertical-align:top;">wsgi_multithread</td><td style="vertical-align:top;">:</td><td><div>True</div></td></tr><tr><td style="font-weight:bold;vertical-align:top;">wsgi_run_once</td><td style="vertical-align:top;">:</td><td><div>False</div></td></tr><tr><td style="font-weight:bold;vertical-align:top;">wsgi_url_scheme</td><td style="vertical-align:top;">:</td><td><div>http</div></td></tr><tr><td style="font-weight:bold;vertical-align:top;">wsgi_version</td><td style="vertical-align:top;">:</td><td><div><table><tr><td><div>1</div></td></tr><tr><td><div>0</div></td></tr></table></div></td></tr></table></div></td></tr><tr><td style="font-weight:bold;vertical-align:top;">extension</td><td style="vertical-align:top;">:</td><td><div>html</div></td></tr><tr><td style="font-weight:bold;vertical-align:top;">folder</td><td style="vertical-align:top;">:</td><td><div>C:\\Users\\008\\moodle-plus\\applications\\MoodlePlus\\</div></td></tr><tr><td style="font-weight:bold;vertical-align:top;">function</td><td style="vertical-align:top;">:</td><td><div>populate_db</div></td></tr><tr><td style="font-weight:bold;vertical-align:top;">global_settings</td><td style="vertical-align:top;">:</td><td><div><table><tr><td style="font-weight:bold;vertical-align:top;">app_folders</td><td style="vertical-align:top;">:</td><td><div>set([&#x27;C:\\\\Users\\\\008\\\\moodle-plus\\\\applications\\\\MoodlePlus\\\\&#x27;])</div></td></tr><tr><td style="font-weight:bold;vertical-align:top;">applications_parent</td><td style="vertical-align:top;">:</td><td><div>C:\\Users\\008\\moodle-plus</div></td></tr><tr><td style="font-weight:bold;vertical-align:top;">cmd_args</td><td style="vertical-align:top;">:</td><td><div><table></table></div></td></tr><tr><td style="font-weight:bold;vertical-align:top;">cmd_options</td><td style="vertical-align:top;">:</td><td><div>&lt;Values at 0x2a23a58: {&#x27;verbose&#x27;: False, &#x27;ip&#x27;: &#x27;127.0.0.1&#x27;, &#x27;debuglevel&#x27;: 30, &#x27;with_scheduler&#x27;: False, &#x27;ips&#x27;: [&#x27;10.249.210.24&#x27;, &#x27;192.168.56.1&#x27;, &#x27;fe80::8838:5d6c:d1d7:36c5%3&#x27;, &#x27;fe80::601b:d8a8:e92a:ed07%9&#x27;], &#x27;shutdown_timeout&#x27;: 5, &#x27;taskbar&#x27;: False, &#x27;with_coverage&#x27;: False, &#x27;scheduler_groups&#x27;: None, &#x27;port&#x27;: 8000, &#x27;maxthreads&#x27;: None, &#x27;softcron&#x27;: False, &#x27;server_name&#x27;: &#x27;hp&#x27;, &#x27;bpython&#x27;: False, &#x27;nogui&#x27;: False, &#x27;pid_filename&#x27;: &#x27;httpserver.pid&#x27;, &#x27;print_errors&#x27;: False, &#x27;extcron&#x27;: False, &#x27;runcron&#x27;: False, &#x27;run_system_tests&#x27;: False, &#x27;test&#x27;: None, &#x27;folder&#x27;: &#x27;C:\\\\Users\\\\008\\\\moodle-plus&#x27;, &#x27;config&#x27;: &#x27;&#x27;, &#x27;minthreads&#x27;: None, &#x27;shell&#x27;: None, &#x27;run&#x27;: &#x27;&#x27;, &#x27;log_filename&#x27;: &#x27;httpserver.log&#x27;, &#x27;profiler_dir&#x27;: None, &#x27;args&#x27;: [&#x27;&#x27;], &#x27;socket_timeout&#x27;: 5, &#x27;ssl_ca_certificate&#x27;: None, &#x27;scheduler&#x27;: None, &#x27;interfaces&#x27;: None, &#x27;ssl_private_key&#x27;: &#x27;&#x27;, &#x27;gae&#x27;: None, &#x27;password&#x27;: &#x27;&lt;ask&gt;&#x27;, &#x27;request_queue_size&#x27;: 5, &#x27;ssl_certificate&#x27;: &#x27;&#x27;, &#x27;cronjob&#x27;: False, &#x27;numthreads&#x27;: None, &#x27;quiet&#x27;: False, &#x27;import_models&#x27;: False, &#x27;timeout&#x27;: 10, &#x27;plain&#x27;: False, &#x27;nobanner&#x27;: False}&gt;</div></td></tr><tr><td style="font-weight:bold;vertical-align:top;">db_sessions</td><td style="vertical-align:top;">:</td><td><div>set([])</div></td></tr><tr><td style="font-weight:bold;vertical-align:top;">debugging</td><td style="vertical-align:top;">:</td><td><div>False</div></td></tr><tr><td style="font-weight:bold;vertical-align:top;">gluon_parent</td><td style="vertical-align:top;">:</td><td><div>C:\\Users\\008\\moodle-plus</div></td></tr><tr><td style="font-weight:bold;vertical-align:top;">is_jython</td><td style="vertical-align:top;">:</td><td><div>False</div></td></tr><tr><td style="font-weight:bold;vertical-align:top;">is_pypy</td><td style="vertical-align:top;">:</td><td><div>False</div></td></tr><tr><td style="font-weight:bold;vertical-align:top;">is_source</td><td style="vertical-align:top;">:</td><td><div>True</div></td></tr><tr><td style="font-weight:bold;vertical-align:top;">local_hosts</td><td style="vertical-align:top;">:</td><td><div><table><tr><td><div>fe80::601b:d8a8:e92a:ed07%9</div></td></tr><tr><td><div>hp</div></td></tr><tr><td><div>::ffff:127.0.0.1</div></td></tr><tr><td><div>::1</div></td></tr><tr><td><div>fe80::8838:5d6c:d1d7:36c5%3</div></td></tr><tr><td><div>10.249.210.24</div></td></tr><tr><td><div>127.0.0.1</div></td></tr><tr><td><div>192.168.56.1</div></td></tr></table></div></td></tr><tr><td style="font-weight:bold;vertical-align:top;">web2py_version</td><td style="vertical-align:top;">:</td><td><div>2.10.3-stable+timestamp.2015.04.02.21.42.07</div></td></tr></table></div></td></tr><tr><td style="font-weight:bold;vertical-align:top;">is_https</td><td style="vertical-align:top;">:</td><td><div>False</div></td></tr><tr><td style="font-weight:bold;vertical-align:top;">is_local</td><td style="vertical-align:top;">:</td><td><div>True</div></td></tr><tr><td style="font-weight:bold;vertical-align:top;">is_restful</td><td style="vertical-align:top;">:</td><td><div>False</div></td></tr><tr><td style="font-weight:bold;vertical-align:top;">is_sheduler</td><td style="vertical-align:top;">:</td><td><div>None</div></td></tr><tr><td style="font-weight:bold;vertical-align:top;">is_shell</td><td style="vertical-align:top;">:</td><td><div>None</div></td></tr><tr><td style="font-weight:bold;vertical-align:top;">now</td><td style="vertical-align:top;">:</td><td><div>datetime.datetime(2016, 2, 8, 17, 39, 26, 927000)</div></td></tr><tr><td style="font-weight:bold;vertical-align:top;">url</td><td style="vertical-align:top;">:</td><td><div>/populate_db</div></td></tr><tr><td style="font-weight:bold;vertical-align:top;">utcnow</td><td style="vertical-align:top;">:</td><td><div>datetime.datetime(2016, 2, 8, 12, 9, 26, 927000)</div></td></tr><tr><td style="font-weight:bold;vertical-align:top;">uuid</td><td style="vertical-align:top;">:</td><td><div>MoodlePlus/127.0.0.1.2016-02-08.17-39-26.49ce390b-39a7-4331-aad9-3396c87131cd</div></td></tr><tr><td style="font-weight:bold;vertical-align:top;">wsgi</td><td style="vertical-align:top;">:</td><td><div>&lt;gluon.main.LazyWSGI object at 0x079A1C50&gt;</div></td></tr></table></div>'
tRp62
sS'frames'
p63
(lp64
(dp65
S'file'
p66
S'C:\\Users\\008\\moodle-plus\\gluon\\restricted.py'
p67
sS'dump'
p68
(dp69
S'environment'
p70
S"{'A': <class 'gluon.html.A'>, 'ANY_OF': <class 'gluon.validators.ANY_OF'>, 'ASSIGNJS': <function ASSIGNJS>, 'AppConfig': <function AppConfig>, 'Auth': <class 'gluon.tools.Auth'>, 'B': <class 'gluon.html.B'>, 'BEAUTIFY': <class 'gluon.html.BEAUTIFY'>, 'BODY': <class 'gluon.html.BODY'>, 'BR': <class 'gluon.html.BR'>, 'BUTTON': <class 'gluon.html.BUTTON'>, ...}"
p71
sS'ccode'
p72
S'<code object <module> at 07C0CDA0, file "C:\\User...ions\\MoodlePlus\\controllers/default.py", line 11>'
p73
ssS'lnum'
p74
I227
sS'lines'
p75
(dp76
I224
S'            ccode = code'
p77
sI225
S'        else:'
p78
sI226
S'            ccode = compile2(code, layer)'
p79
sI227
S'        exec ccode in environment'
p80
sI228
S'    except HTTP:'
p81
sI229
S'        raise'
p82
sI230
S'    except RestrictedError:'
p83
sI231
S'        # do not encapsulate (obfuscate) the original RestrictedError'
p84
sI222
S'    try:'
p85
sI223
S'        if isinstance(code, types.CodeType):'
p86
ssS'call'
p87
S'(code=\'# -*- coding: utf-8 -*-\\n# this file is released ...""\\n\\nresponse._vars=response._caller(populate_db)\\n\', environment={\'A\': <class \'gluon.html.A\'>, \'ANY_OF\': <class \'gluon.validators.ANY_OF\'>, \'ASSIGNJS\': <function ASSIGNJS>, \'AppConfig\': <function AppConfig>, \'Auth\': <class \'gluon.tools.Auth\'>, \'B\': <class \'gluon.html.B\'>, \'BEAUTIFY\': <class \'gluon.html.BEAUTIFY\'>, \'BODY\': <class \'gluon.html.BODY\'>, \'BR\': <class \'gluon.html.BR\'>, \'BUTTON\': <class \'gluon.html.BUTTON\'>, ...}, layer=r\'C:\\Users\\008\\moodle-plus\\applications\\MoodlePlus\\controllers/default.py\')'
p88
sS'func'
p89
S'restricted'
p90
sa(dp91
g66
S'C:\\Users\\008\\moodle-plus\\applications\\MoodlePlus\\controllers\\default.py'
p92
sg68
(dp93
sg74
I437
sg75
(dp94
I426
S'Url: /threads/new.json'
p95
sI427
S'Input params:'
p96
sI428
S"    title: (string) can't be empty"
p97
sI429
S"    description: (string) can't be empty"
p98
sI430
S'    course_code: (string) must be a registered courses'
p99
sI431
S'Output params:'
p100
sI432
S'    success: (bool) True or False depending on whether thread was posted'
p101
sI433
S'    thread_id: (bool) id of new thread created'
p102
sI434
S''
sI435
S'    """'
p103
ssg87
S'()'
p104
sg89
S'<module>'
p105
sa(dp106
g66
S'C:\\Users\\008\\moodle-plus\\gluon\\globals.py'
p107
sg68
(dp108
S'self'
p109
S'undefined'
p110
sS'f'
S'<function populate_db>'
p111
ssg74
I393
sg75
(dp112
I388
S"        self.flash = ''            # used by the default view layout"
p113
sI389
S'        self.meta = Storage()      # used by web2py_ajax.html'
p114
sI390
S'        self.menu = []             # used by the default view layout'
p115
sI391
S'        self.files = []            # used by web2py_ajax.html'
p116
sI392
S'        self._vars = None'
p117
sI393
S'        self._caller = lambda f: f()'
p118
sI394
S'        self._view_environment = None'
p119
sI395
S'        self._custom_commit = None'
p120
sI396
S'        self._custom_rollback = None'
p121
sI397
S"        self.generic_patterns = ['*']"
p122
ssg87
S'(f=<function populate_db>)'
p123
sg89
S'<lambda>'
p124
sa(dp125
g66
S'C:\\Users\\008\\moodle-plus\\applications\\MoodlePlus\\controllers\\default.py'
p126
sg68
(dp127
S'ending_date'
p128
g110
sS'global datetime'
p129
S"<type 'datetime.datetime'>"
p130
ssg74
I256
sg75
(dp131
I256
S'\t\tending_date=datetime(2016,5,10),'
p132
sI257
S'\t)'
p133
sI258
S''
sI259
S'\tdb.registered_courses.insert('
p134
sI260
S'\t\tcourse_id=2,'
p135
sI251
S'\t\tcourse_id=1,'
p136
sI252
S'\t\tprofessor=5,'
p137
sI253
S'\t\tyear_=2016,'
p138
sI254
S'\t\tsemester=2,'
p139
sI255
S'\t\tstarting_date=datetime(2016,1,1),'
p140
ssg87
S'()'
p141
sg89
S'populate_db'
p142
sa(dp143
g66
S'C:\\Users\\008\\moodle-plus\\gluon\\packages\\dal\\pydal\\objects.py'
p144
sg68
(dp145
S'self._listify'
p146
S'<bound method Table._listify of <Table registere...essor,year_,semester,starting_date,ending_date)>>'
p147
sS'fields'
p148
S"{'course_id': 1, 'ending_date': datetime.datetime(2016, 5, 10, 0, 0), 'professor': 5, 'semester': 2, 'starting_date': datetime.datetime(2016, 1, 1, 0, 0), 'year_': 2016}"
p149
sS'self'
p150
S'<Table registered_courses (id,course_id,professor,year_,semester,starting_date,ending_date)>'
p151
sS'ret'
p152
g110
sS'self._db._adapter'
p153
S'<pydal.adapters.sqlite.SQLiteAdapter object>'
p154
sS'self._db._adapter.insert'
p155
S'<bound method SQLiteAdapter.insert of <pydal.adapters.sqlite.SQLiteAdapter object>>'
p156
sS'self._db'
p157
S'<DAL uri="sqlite://storage.sqlite">'
p158
ssg74
I745
sg75
(dp159
I740
S''
sI741
S'    def insert(self, **fields):'
p160
sI742
S'        fields = self._defaults(fields)'
p161
sI743
S'        self._attempt_upload(fields)'
p162
sI744
S'        if any(f(fields) for f in self._before_insert): return 0'
p163
sI745
S'        ret =  self._db._adapter.insert(self, self._listify(fields))'
p164
sI746
S'        if ret and self._after_insert:'
p165
sI747
S'            fields = Row(fields)'
p166
sI748
S'            [f(fields,ret) for f in self._after_insert]'
p167
sI749
S'        return ret'
p168
ssg87
S"(self=<Table registered_courses (id,course_id,professor,year_,semester,starting_date,ending_date)>, **fields={'course_id': 1, 'ending_date': datetime.datetime(2016, 5, 10, 0, 0), 'professor': 5, 'semester': 2, 'starting_date': datetime.datetime(2016, 1, 1, 0, 0), 'year_': 2016})"
p169
sg89
S'insert'
p170
sa(dp171
g66
S'C:\\Users\\008\\moodle-plus\\gluon\\packages\\dal\\pydal\\adapters\\base.py'
p172
sg68
(dp173
S'e'
S"IntegrityError('foreign key constraint failed',)"
p174
ssg74
I727
sg75
(dp175
I722
S'            self.execute(query)'
p176
sI723
S'        except Exception:'
p177
sI724
S'            e = sys.exc_info()[1]'
p178
sI725
S"            if hasattr(table,'_on_insert_error'):"
p179
sI726
S'                return table._on_insert_error(table,fields,e)'
p180
sI727
S'            raise e'
p181
sI728
S"        if hasattr(table, '_primarykey'):"
p182
sI729
S'            mydict = dict([(k[0].name, k[1]) for k in fields if k[0].name in table._primarykey])'
p183
sI730
S'            if mydict != {}:'
p184
sI731
S'                return mydict'
p185
ssg87
S'(self=<pydal.adapters.sqlite.SQLiteAdapter object>, table=<Table registered_courses (id,course_id,professor,year_,semester,starting_date,ending_date)>, fields=[(<pydal.objects.Field object>, 2016), (<pydal.objects.Field object>, 5), (<pydal.objects.Field object>, 2), (<pydal.objects.Field object>, datetime.datetime(2016, 5, 10, 0, 0)), (<pydal.objects.Field object>, 1), (<pydal.objects.Field object>, datetime.datetime(2016, 1, 1, 0, 0))])'
p186
sg89
g170
sasS'pyver'
p187
S'Python 2.7.9: C:\\Users\\008\\moodle-plus\\web2py.exe (prefix: )'
p188
sS'session'
p189
g61
(S's\x1a\x00\x00\x00<div><table></table></div>'
tRp190
sS'etype'
p191
S"<class 'sqlite3.IntegrityError'>"
p192
sS'date'
p193
S'Mon Feb 08 17:39:27 2016'
p194
sS'response'
p195
g61
(S's6\x1d\x00\x00<div><table><tr><td style="font-weight:bold;vertical-align:top;">body</td><td style="vertical-align:top;">:</td><td><div>&lt;cStringIO.StringO object at 0x079A1A40&gt;</div></td></tr><tr><td style="font-weight:bold;vertical-align:top;">cookies</td><td style="vertical-align:top;">:</td><td><div><table><tr><td style="font-weight:bold;vertical-align:top;">session_id_moodleplus</td><td style="vertical-align:top;">:</td><td><div>127.0.0.1-d02097d0-b1fe-4827-8535-896a8995b02b<table><tr><td style="font-weight:bold;vertical-align:top;">comment</td><td style="vertical-align:top;">:</td><td><div></div></td></tr><tr><td style="font-weight:bold;vertical-align:top;">domain</td><td style="vertical-align:top;">:</td><td><div></div></td></tr><tr><td style="font-weight:bold;vertical-align:top;">expires</td><td style="vertical-align:top;">:</td><td><div></div></td></tr><tr><td style="font-weight:bold;vertical-align:top;">httponly</td><td style="vertical-align:top;">:</td><td><div></div></td></tr><tr><td style="font-weight:bold;vertical-align:top;">max-age</td><td style="vertical-align:top;">:</td><td><div></div></td></tr><tr><td style="font-weight:bold;vertical-align:top;">path</td><td style="vertical-align:top;">:</td><td><div>/</div></td></tr><tr><td style="font-weight:bold;vertical-align:top;">secure</td><td style="vertical-align:top;">:</td><td><div></div></td></tr><tr><td style="font-weight:bold;vertical-align:top;">version</td><td style="vertical-align:top;">:</td><td><div></div></td></tr></table></div></td></tr></table></div></td></tr><tr><td style="font-weight:bold;vertical-align:top;">delimiters</td><td style="vertical-align:top;">:</td><td><div><table><tr><td><div>{{</div></td></tr><tr><td><div>}}</div></td></tr></table></div></td></tr><tr><td style="font-weight:bold;vertical-align:top;">files</td><td style="vertical-align:top;">:</td><td><div><table></table></div></td></tr><tr><td style="font-weight:bold;vertical-align:top;">flash</td><td style="vertical-align:top;">:</td><td><div></div></td></tr><tr><td style="font-weight:bold;vertical-align:top;">form_label_separator</td><td style="vertical-align:top;">:</td><td><div></div></td></tr><tr><td style="font-weight:bold;vertical-align:top;">formstyle</td><td style="vertical-align:top;">:</td><td><div>bootstrap3_inline</div></td></tr><tr><td style="font-weight:bold;vertical-align:top;">generic_patterns</td><td style="vertical-align:top;">:</td><td><div><table><tr><td><div>*</div></td></tr></table></div></td></tr><tr><td style="font-weight:bold;vertical-align:top;">google_analytics_id</td><td style="vertical-align:top;">:</td><td><div>None</div></td></tr><tr><td style="font-weight:bold;vertical-align:top;">headers</td><td style="vertical-align:top;">:</td><td><div><table><tr><td style="font-weight:bold;vertical-align:top;">X-Powered-By</td><td style="vertical-align:top;">:</td><td><div>web2py</div></td></tr></table></div></td></tr><tr><td style="font-weight:bold;vertical-align:top;">logo</td><td style="vertical-align:top;">:</td><td><div><a class="navbar-brand" href="/" id="web2py-logo"><b>Moodle&nbsp;<span>Plus</span></b>&trade;&nbsp;</a></div></td></tr><tr><td style="font-weight:bold;vertical-align:top;">menu</td><td style="vertical-align:top;">:</td><td><div><table><tr><td><div><table><tr><td><div>Home</div></td></tr><tr><td><div>False</div></td></tr><tr><td><div>/</div></td></tr><tr><td><div><table></table></div></td></tr></table></div></td></tr><tr><td><div><table><tr><td><div>My Course</div></td></tr><tr><td><div>False</div></td></tr><tr><td><div>/courses</div></td></tr><tr><td><div><table></table></div></td></tr></table></div></td></tr></table></div></td></tr><tr><td style="font-weight:bold;vertical-align:top;">meta</td><td style="vertical-align:top;">:</td><td><div><table><tr><td style="font-weight:bold;vertical-align:top;">author</td><td style="vertical-align:top;">:</td><td><div>Your Name &lt;you@example.com&gt;</div></td></tr><tr><td style="font-weight:bold;vertical-align:top;">description</td><td style="vertical-align:top;">:</td><td><div>a cool new app</div></td></tr><tr><td style="font-weight:bold;vertical-align:top;">generator</td><td style="vertical-align:top;">:</td><td><div>Web2py Web Framework</div></td></tr><tr><td style="font-weight:bold;vertical-align:top;">keywords</td><td style="vertical-align:top;">:</td><td><div>web2py, python, framework</div></td></tr></table></div></td></tr><tr><td style="font-weight:bold;vertical-align:top;">models_to_run</td><td style="vertical-align:top;">:</td><td><div><table><tr><td><div>^\\w+\\.py$</div></td></tr><tr><td><div>^default/\\w+\\.py$</div></td></tr><tr><td><div>^default/populate_db/\\w+\\.py$</div></td></tr></table></div></td></tr><tr><td style="font-weight:bold;vertical-align:top;">postprocessing</td><td style="vertical-align:top;">:</td><td><div><table></table></div></td></tr><tr><td style="font-weight:bold;vertical-align:top;">session_client</td><td style="vertical-align:top;">:</td><td><div>127.0.0.1</div></td></tr><tr><td style="font-weight:bold;vertical-align:top;">session_cookie_compression_level</td><td style="vertical-align:top;">:</td><td><div>None</div></td></tr><tr><td style="font-weight:bold;vertical-align:top;">session_cookie_expires</td><td style="vertical-align:top;">:</td><td><div>None</div></td></tr><tr><td style="font-weight:bold;vertical-align:top;">session_cookie_key</td><td style="vertical-align:top;">:</td><td><div>None</div></td></tr><tr><td style="font-weight:bold;vertical-align:top;">session_data_name</td><td style="vertical-align:top;">:</td><td><div>session_data_moodleplus</div></td></tr><tr><td style="font-weight:bold;vertical-align:top;">session_file</td><td style="vertical-align:top;">:</td><td><div>None</div></td></tr><tr><td style="font-weight:bold;vertical-align:top;">session_filename</td><td style="vertical-align:top;">:</td><td><div>C:\\Users\\008\\moodle-plus\\applications\\MoodlePlus\\sessions\\127.0.0.1-d02097d0-b1fe-4827-8535-896a8995b02b</div></td></tr><tr><td style="font-weight:bold;vertical-align:top;">session_hash</td><td style="vertical-align:top;">:</td><td><div>c0762cbf4baf7f9af97c051e7fcb8083</div></td></tr><tr><td style="font-weight:bold;vertical-align:top;">session_id</td><td style="vertical-align:top;">:</td><td><div>127.0.0.1-d02097d0-b1fe-4827-8535-896a8995b02b</div></td></tr><tr><td style="font-weight:bold;vertical-align:top;">session_id_name</td><td style="vertical-align:top;">:</td><td><div>session_id_moodleplus</div></td></tr><tr><td style="font-weight:bold;vertical-align:top;">session_masterapp</td><td style="vertical-align:top;">:</td><td><div>MoodlePlus</div></td></tr><tr><td style="font-weight:bold;vertical-align:top;">session_new</td><td style="vertical-align:top;">:</td><td><div>True</div></td></tr><tr><td style="font-weight:bold;vertical-align:top;">session_storage_type</td><td style="vertical-align:top;">:</td><td><div>file</div></td></tr><tr><td style="font-weight:bold;vertical-align:top;">status</td><td style="vertical-align:top;">:</td><td><div>200</div></td></tr><tr><td style="font-weight:bold;vertical-align:top;">subtitle</td><td style="vertical-align:top;">:</td><td><div></div></td></tr><tr><td style="font-weight:bold;vertical-align:top;">title</td><td style="vertical-align:top;">:</td><td><div>Moodleplus</div></td></tr><tr><td style="font-weight:bold;vertical-align:top;">view</td><td style="vertical-align:top;">:</td><td><div>default/populate_db.html</div></td></tr></table></div>'
tRp196
sS'locals'
p197
(dp198
S'query'
p199
S'"INSERT INTO registered_courses(year_,professor,s...2,\'2016-05-10 00:00:00\',1,\'2016-01-01 00:00:00\');"'
p200
sS'self'
p201
S'<pydal.adapters.sqlite.SQLiteAdapter object>'
p202
sS'e'
S"IntegrityError('foreign key constraint failed',)"
p203
sS'fields'
p204
S'[(<pydal.objects.Field object>, 2016), (<pydal.objects.Field object>, 5), (<pydal.objects.Field object>, 2), (<pydal.objects.Field object>, datetime.datetime(2016, 5, 10, 0, 0)), (<pydal.objects.Field object>, 1), (<pydal.objects.Field object>, datetime.datetime(2016, 1, 1, 0, 0))]'
p205
sS'table'
p206
S'<Table registered_courses (id,course_id,professor,year_,semester,starting_date,ending_date)>'
p207
sssS'traceback'
p208
S'Traceback (most recent call last):\n  File "C:\\Users\\008\\moodle-plus\\gluon\\restricted.py", line 227, in restricted\n    exec ccode in environment\n  File "C:\\Users\\008\\moodle-plus\\applications\\MoodlePlus\\controllers/default.py", line 437, in <module>\n  File "C:\\Users\\008\\moodle-plus\\gluon\\globals.py", line 393, in <lambda>\n    self._caller = lambda f: f()\n  File "C:\\Users\\008\\moodle-plus\\applications\\MoodlePlus\\controllers/default.py", line 256, in populate_db\n    ending_date=datetime(2016,5,10),\n  File "C:\\Users\\008\\moodle-plus\\gluon\\packages\\dal\\pydal\\objects.py", line 745, in insert\n    ret =  self._db._adapter.insert(self, self._listify(fields))\n  File "C:\\Users\\008\\moodle-plus\\gluon\\packages\\dal\\pydal\\adapters\\base.py", line 727, in insert\n    raise e\nIntegrityError: foreign key constraint failed\n'
p209
s.